Microchip MPLAB XC8 Compiler V2.32

Linker command line:

-W-3 --edf=C:\Program Files\Microchip\xc8\v2.32\pic\dat\en_msgs.txt -cn \
  -h+dist/default/production\uart_test_pic18f23k20.X.production.sym \
  --cmf=dist/default/production\uart_test_pic18f23k20.X.production.cmf -z \
  -Q18F23K20 -oC:\Users\Admin\AppData\Local\Temp\xcAsdus.4 \
  --defsym=__MPLAB_BUILD=1 \
  -Mdist/default/production/uart_test_pic18f23k20.X.production.map -E1 \
  -ver=XC8 Compiler --acfsm=1493 -ASTACK=060h-01FFh -pstack=STACK \
  -ACODE=00h-01FFFh -ACONST=00h-01FFFh -ASMALLCONST=0200h-02FFhx30 \
  -AMEDIUMCONST=0200h-01FFFh -ACOMRAM=01h-05Fh -AABS1=00h-01FFh \
  -ABIGRAM=01h-01FFh -ARAM=060h-0FFh,0100h-01FFh -ABANK0=060h-0FFh \
  -ABANK1=0100h-01FFh -ASFR=0F60h-0FFFh -ACONFIG=0300000h-030000Dh \
  -AIDLOC=0200000h-0200007h -AEEDATA=0F00000h-0F000FFh -peeprom_data=EEDATA \
  -preset_vec=00h,intcode,intcodelo,powerup,init -pramtop=0200h \
  -psmallconst=SMALLCONST -pmediumconst=MEDIUMCONST -pconst=CONST \
  -AFARRAM=00h-00h \
  -prdata=COMRAM,nvrram=COMRAM,nvbit=COMRAM,rbss=COMRAM,rbit=COMRAM \
  -pfarbss=FARRAM,fardata=FARRAM,nvFARRAM=FARRAM \
  -pintsave_regs=BIGRAM,bigbss=BIGRAM,bigdata=BIGRAM -pbss=RAM \
  -pidata=CODE,irdata=CODE,ibigdata=CODE,ifardata=CODE -prparam=COMRAM \
  C:\Users\Admin\AppData\Local\Temp\xcAsdus.o \
  dist/default/production\uart_test_pic18f23k20.X.production.o 

Object code version is 3.11

Machine type is 18F23K20



                Name                               Link     Load   Length Selector   Space Scale
C:\Users\Admin\AppData\Local\Temp\xcAsdus.o
                idloc                            200000   200000        8        0       5
                config                           300000   300000        E        0       4
                init                                  0        0        4        0       0
dist/default/production\uart_test_pic18f23k20.X.production.o
                idloc                            200000   200000        8        0       5
                config                           300000   300000        E        0       4
                text8                              1F62     1F62       16      FB1       0
                text7                              1F20     1F20        A      F90       0
                text6                              1F2A     1F2A        A      F95       0
                text5                              1F34     1F34        A      F9A       0
                text4                              1FC2     1FC2       3E      FE1       0
                text3                              1F3E     1F3E        A      F9F       0
                text2                              1F78     1F78       24      FBC       0
                text1                              1F54     1F54        E      FAA       0
                text0                              1F9C     1F9C       26      FCE       0
                cstackCOMRAM                          7        7        3        1       1
                bssCOMRAM                             A        A        1        1       1
                cinit                              1F48     1F48        C      FA4       0
                nvCOMRAM                              1        1        6        1       1

TOTAL           Name                               Link     Load   Length     Space
        CLASS   STACK          

        CLASS   CODE           
                init                                  0        0        4         0
                text8                              1F62     1F62       16         0
                text7                              1F20     1F20        A         0
                text6                              1F2A     1F2A        A         0
                text5                              1F34     1F34        A         0
                text4                              1FC2     1FC2       3E         0
                text3                              1F3E     1F3E        A         0
                text2                              1F78     1F78       24         0
                text1                              1F54     1F54        E         0
                text0                              1F9C     1F9C       26         0
                cinit                              1F48     1F48        C         0

        CLASS   CONST          

        CLASS   SMALLCONST     

        CLASS   MEDIUMCONST    

        CLASS   COMRAM         
                cstackCOMRAM                          7        7        3         1
                bssCOMRAM                             A        A        1         1
                nvCOMRAM                              1        1        6         1

        CLASS   ABS1           

        CLASS   BIGRAM         

        CLASS   RAM            

        CLASS   BANK0          

        CLASS   BANK1          

        CLASS   SFR            

        CLASS   CONFIG         
                config                           300000   300000        E         4

        CLASS   IDLOC          
                idloc                            200000   200000        8         5

        CLASS   EEDATA         

        CLASS   FARRAM         



SEGMENTS        Name                           Load    Length   Top    Selector   Space  Class

                reset_vec                      000000  000004  000004         0       0  CODE    
                nvCOMRAM                       000001  00000A  00000B         1       1  COMRAM  
                text7                          001F20  00000A  001F2A       F90       0  CODE    
                text6                          001F2A  00000A  001F34       F95       0  CODE    
                text5                          001F34  00000A  001F3E       F9A       0  CODE    
                text3                          001F3E  00000A  001F48       F9F       0  CODE    
                cinit                          001F48  00000C  001F54       FA4       0  CODE    
                text1                          001F54  00000E  001F62       FAA       0  CODE    
                text8                          001F62  000016  001F78       FB1       0  CODE    
                text2                          001F78  000024  001F9C       FBC       0  CODE    
                text0                          001F9C  000026  001FC2       FCE       0  CODE    
                text4                          001FC2  00003E  002000       FE1       0  CODE    


UNUSED ADDRESS RANGES

        Name                Unused          Largest block    Delta
        BANK0            000060-0000FF               A0
        BANK1            000100-0001FF              100
        BIGRAM           00000B-0001FF              1F5
        CODE             000004-001F1F             1F1C
        COMRAM           00000B-00005F               55
        CONST            000004-001F1F             1F1C
        EEDATA           F00000-F000FF              100
        MEDIUMCONST      000200-001F1F             1D20
        RAM              000060-0001FF               A0
        SFR              000F60-000FFF               A0
        SMALLCONST       000200-001F1F              100
        STACK            000060-0001FF              1A0

                                  Symbol Table

EUSART_SetErrorHandler@interruptHandler        cstackCOMRAM 000007
EUSART_SetFramingErrorHandler@interruptHandler cstackCOMRAM 000007
EUSART_SetOverrunErrorHandler@interruptHandler cstackCOMRAM 000007
EUSART_Write@txData                            cstackCOMRAM 000007
_ANSEL                                         (abs)        000F7E
_ANSELH                                        (abs)        000F7F
_BAUDCON                                       (abs)        000FB8
_EUSART_DefaultErrorHandler                    (abs)        000000
_EUSART_DefaultFramingErrorHandler             (abs)        000000
_EUSART_DefaultOverrunErrorHandler             (abs)        000000
_EUSART_ErrorHandler                           nvCOMRAM     000001
_EUSART_FramingErrorHandler                    nvCOMRAM     000005
_EUSART_Initialize                             text4        001FC2
_EUSART_OverrunErrorHandler                    nvCOMRAM     000003
_EUSART_SetErrorHandler                        text7        001F20
_EUSART_SetFramingErrorHandler                 text6        001F2A
_EUSART_SetOverrunErrorHandler                 text5        001F34
_EUSART_Write                                  text8        001F62
_INTCON2bits                                   (abs)        000FF1
_INTCONbits                                    (abs)        000FF2
_LATA                                          (abs)        000F89
_LATB                                          (abs)        000F8A
_LATC                                          (abs)        000F8B
_OSCCON                                        (abs)        000FD3
_OSCILLATOR_Initialize                         text3        001F3E
_OSCTUNE                                       (abs)        000F9B
_PIN_MANAGER_Initialize                        text2        001F78
_PIR1bits                                      (abs)        000F9E
_RCREG                                         (abs)        000FAE
_RCSTA                                         (abs)        000FAB
_RCSTAbits                                     (abs)        000FAB
_SPBRG                                         (abs)        000FAF
_SPBRGH                                        (abs)        000FB0
_SYSTEM_Initialize                             text1        001F54
_TRISA                                         (abs)        000F92
_TRISB                                         (abs)        000F93
_TRISC                                         (abs)        000F94
_TXREG                                         (abs)        000FAD
_TXSTA                                         (abs)        000FAC
_TXSTAbits                                     (abs)        000FAC
_WPUB                                          (abs)        000F7C
__HRAM                                         (abs)        000000
__Habs1                                        abs1         000000
__Hbank0                                       bank0        000000
__Hbank1                                       bank1        000000
__Hbigbss                                      bigbss       000000
__Hbigdata                                     bigdata      000000
__Hbigram                                      bigram       000000
__Hbss                                         bss          000000
__HbssCOMRAM                                   bssCOMRAM    000000
__Hcinit                                       cinit        000000
__Hclrtext                                     clrtext      000000
__Hcomram                                      comram       000000
__Hconfig                                      config       30000E
__Hconst                                       const        000000
__HcstackCOMRAM                                cstackCOMRAM 000000
__Hdata                                        data         000000
__Heeprom_data                                 eeprom_data  000000
__Hfarbss                                      farbss       000000
__Hfardata                                     fardata      000000
__Hibigdata                                    ibigdata     000000
__Hidata                                       idata        000000
__Hidloc                                       idloc        200008
__Hifardata                                    ifardata     000000
__Hinit                                        init         000004
__Hintcode                                     intcode      000000
__Hintcode_body                                intcode_body 000000
__Hintcodelo                                   intcodelo    000000
__Hintentry                                    intentry     000000
__Hintret                                      intret       000000
__Hintsave_regs                                intsave_regs 000000
__Hirdata                                      irdata       000000
__Hmediumconst                                 mediumconst  000000
__HnvCOMRAM                                    nvCOMRAM     000000
__HnvFARRAM                                    nvFARRAM     000000
__Hnvbit                                       nvbit        000000
__Hnvrram                                      nvrram       000000
__Hparam                                       rparam       000000
__Hpowerup                                     powerup      000000
__Hram                                         ram          000000
__Hramtop                                      ramtop       000200
__Hrbit                                        rbit         000000
__Hrbss                                        rbss         000000
__Hrdata                                       rdata        000000
__Hreset_vec                                   reset_vec    000000
__Hrparam                                      rparam       000000
__Hsfr                                         sfr          000000
__Hsmallconst                                  smallconst   000000
__Hspace_0                                     (abs)        002000
__Hspace_1                                     (abs)        00000B
__Hspace_2                                     (abs)        000000
__Hspace_4                                     (abs)        60000E
__Hstack                                       stack        000000
__Hstruct                                      struct       000000
__Htemp                                        temp         000000
__Htext                                        text         000000
__Htext0                                       text0        000000
__Htext1                                       text1        000000
__Htext2                                       text2        000000
__Htext3                                       text3        000000
__Htext4                                       text4        000000
__Htext5                                       text5        000000
__Htext6                                       text6        000000
__Htext7                                       text7        000000
__Htext8                                       text8        000000
__LRAM                                         (abs)        000001
__Labs1                                        abs1         000000
__Lbank0                                       bank0        000000
__Lbank1                                       bank1        000000
__Lbigbss                                      bigbss       000000
__Lbigdata                                     bigdata      000000
__Lbigram                                      bigram       000000
__Lbss                                         bss          000000
__LbssCOMRAM                                   bssCOMRAM    000000
__Lcinit                                       cinit        000000
__Lclrtext                                     clrtext      000000
__Lcomram                                      comram       000000
__Lconfig                                      config       000000
__Lconst                                       const        000000
__LcstackCOMRAM                                cstackCOMRAM 000000
__Ldata                                        data         000000
__Leeprom_data                                 eeprom_data  000000
__Lfarbss                                      farbss       000000
__Lfardata                                     fardata      000000
__Libigdata                                    ibigdata     000000
__Lidata                                       idata        000000
__Lidloc                                       idloc        000000
__Lifardata                                    ifardata     000000
__Linit                                        init         000000
__Lintcode                                     intcode      000000
__Lintcode_body                                intcode_body 000000
__Lintcodelo                                   intcodelo    000000
__Lintentry                                    intentry     000000
__Lintret                                      intret       000000
__Lintsave_regs                                intsave_regs 000000
__Lirdata                                      irdata       000000
__Lmediumconst                                 mediumconst  000000
__LnvCOMRAM                                    nvCOMRAM     000000
__LnvFARRAM                                    nvFARRAM     000000
__Lnvbit                                       nvbit        000000
__Lnvrram                                      nvrram       000000
__Lparam                                       rparam       000000
__Lpowerup                                     powerup      000000
__Lram                                         ram          000000
__Lramtop                                      ramtop       000200
__Lrbit                                        rbit         000000
__Lrbss                                        rbss         000000
__Lrdata                                       rdata        000000
__Lreset_vec                                   reset_vec    000000
__Lrparam                                      rparam       000000
__Lsfr                                         sfr          000000
__Lsmallconst                                  smallconst   000000
__Lspace_0                                     (abs)        000000
__Lspace_1                                     (abs)        000000
__Lspace_2                                     (abs)        000000
__Lspace_4                                     (abs)        000000
__Lstack                                       stack        000000
__Lstruct                                      struct       000000
__Ltemp                                        temp         000000
__Ltext                                        text         000000
__Ltext0                                       text0        000000
__Ltext1                                       text1        000000
__Ltext2                                       text2        000000
__Ltext3                                       text3        000000
__Ltext4                                       text4        000000
__Ltext5                                       text5        000000
__Ltext6                                       text6        000000
__Ltext7                                       text7        000000
__Ltext8                                       text8        000000
__S0                                           (abs)        002000
__S1                                           (abs)        00000B
__S2                                           (abs)        000000
__S4                                           (abs)        000000
__S5                                           (abs)        000000
___inthi_sp                                    stack        000000
___intlo_sp                                    stack        000000
___param_bank                                  (abs)        000000
___rparam_used                                 (abs)        000001
___sp                                          stack        000000
__accesstop                                    (abs)        000060
__activetblptr                                 (abs)        000002
__end_of_EUSART_Initialize                     text4        002000
__end_of_EUSART_SetErrorHandler                text7        001F2A
__end_of_EUSART_SetFramingErrorHandler         text6        001F34
__end_of_EUSART_SetOverrunErrorHandler         text5        001F3E
__end_of_EUSART_Write                          text8        001F78
__end_of_OSCILLATOR_Initialize                 text3        001F48
__end_of_PIN_MANAGER_Initialize                text2        001F9C
__end_of_SYSTEM_Initialize                     text1        001F62
__end_of__initialization                       cinit        001F4A
__end_of_main                                  text0        001FC2
__initialization                               cinit        001F48
__mediumconst                                  mediumconst  000000
__pbssCOMRAM                                   bssCOMRAM    00000A
__pcinit                                       cinit        001F48
__pcstackCOMRAM                                cstackCOMRAM 000007
__pnvCOMRAM                                    nvCOMRAM     000001
__ptext0                                       text0        001F9C
__ptext1                                       text1        001F54
__ptext2                                       text2        001F78
__ptext3                                       text3        001F3E
__ptext4                                       text4        001FC2
__ptext5                                       text5        001F34
__ptext6                                       text6        001F2A
__ptext7                                       text7        001F20
__ptext8                                       text8        001F62
__ramtop                                       ramtop       000200
__size_of_EUSART_Initialize                    (abs)        000000
__size_of_EUSART_SetErrorHandler               (abs)        000000
__size_of_EUSART_SetFramingErrorHandler        (abs)        000000
__size_of_EUSART_SetOverrunErrorHandler        (abs)        000000
__size_of_EUSART_Write                         (abs)        000000
__size_of_OSCILLATOR_Initialize                (abs)        000000
__size_of_PIN_MANAGER_Initialize               (abs)        000000
__size_of_SYSTEM_Initialize                    (abs)        000000
__size_of_main                                 (abs)        000000
__smallconst                                   smallconst   000000
_eusartRxLastError                             bssCOMRAM    00000A
_main                                          text0        001F9C
end_of_initialization                          cinit        001F4A
intlevel0                                      text         000000
intlevel1                                      text         000000
intlevel2                                      text         000000
intlevel3                                      text         000000
isa$std                                        (abs)        000001
isa$xinst                                      (abs)        000000
stackhi                                        (abs)        0001FF
stacklo                                        (abs)        000060
start                                          init         000000
start_initialization                           cinit        001F48


MODULE INFORMATION

Module		Function		Class		Link	Load	Size
mcc_generated_files/pin_manager.c
		_PIN_MANAGER_Initialize		CODE           	1F78	0000	36

mcc_generated_files/pin_manager.c estimated size: 36

shared
		__initialization		CODE           	1F48	0000	2

shared estimated size: 2

mcc_generated_files/mcc.c
		_OSCILLATOR_Initialize		CODE           	1F3E	0000	10
		_SYSTEM_Initialize		CODE           	1F54	0000	14

mcc_generated_files/mcc.c estimated size: 24

mcc_generated_files/eusart.c
		_EUSART_Write  		CODE           	1F62	0000	22
		_EUSART_Initialize		CODE           	1FC2	0000	62
		_EUSART_SetFramingErrorHandler		CODE           	1F2A	0000	10
		_EUSART_SetErrorHandler		CODE           	1F20	0000	10
		_EUSART_SetOverrunErrorHandler		CODE           	1F34	0000	10

mcc_generated_files/eusart.c estimated size: 114

main.c
		_main          		CODE           	1F9C	0000	38

main.c estimated size: 38

